; Function Attrs: nofree norecurse nosync nounwind memory(readwrite, inaccessiblemem: none) uwtable
define internal noundef i32 @do_slice_8_1(ptr noundef readonly captures(none) %0, ptr noundef readonly captures(none) %1, i32 noundef %2, i32 noundef %3) #6 {
  %5 = getelementptr inbounds nuw i8, ptr %0, i64 72
  %6 = load ptr, ptr %5, align 8, !tbaa !19
  %7 = getelementptr inbounds nuw i8, ptr %6, i64 276
  %8 = load i32, ptr %7, align 4, !tbaa !60
  %9 = getelementptr inbounds nuw i8, ptr %1, i64 108
  %10 = load i32, ptr %9, align 4, !tbaa !66
  %11 = mul nsw i32 %10, %2
  %12 = sdiv i32 %11, %3
  %13 = add nsw i32 %2, 1
  %14 = mul nsw i32 %10, %13
  %15 = sdiv i32 %14, %3
  %16 = getelementptr inbounds nuw i8, ptr %1, i64 64
  %17 = load i32, ptr %16, align 8, !tbaa !51
  %18 = sext i32 %17 to i64
  %19 = icmp slt i32 %12, %15
  br i1 %19, label %.preheader.lr.ph, label %._crit_edge73

.preheader.lr.ph:                                 ; preds = %4
  %20 = getelementptr inbounds nuw i8, ptr %1, i64 104
  %21 = load i32, ptr %20, align 8, !tbaa !71
  %22 = mul nsw i32 %21, %8
  %23 = icmp sgt i32 %22, 0
  %24 = getelementptr inbounds nuw i8, ptr %6, i64 144
  %25 = getelementptr inbounds nuw i8, ptr %6, i64 176
  %26 = getelementptr inbounds nuw i8, ptr %6, i64 208
  %27 = getelementptr inbounds nuw i8, ptr %6, i64 152
  %28 = getelementptr inbounds nuw i8, ptr %6, i64 184
  %29 = getelementptr inbounds nuw i8, ptr %6, i64 216
  %30 = getelementptr inbounds nuw i8, ptr %6, i64 160
  %31 = getelementptr inbounds nuw i8, ptr %6, i64 192
  %32 = getelementptr inbounds nuw i8, ptr %6, i64 224
  br i1 %23, label %.preheader.us.preheader, label %._crit_edge73

.preheader.us.preheader:                          ; preds = %.preheader.lr.ph
  %33 = load ptr, ptr %1, align 8, !tbaa !72
  %34 = sext i32 %12 to i64
  %35 = mul nsw i64 %18, %34
  %36 = getelementptr inbounds i8, ptr %33, i64 %35
  %37 = getelementptr inbounds nuw i8, ptr %6, i64 280
  %38 = load i8, ptr %37, align 8, !tbaa !73
  %39 = zext i8 %38 to i64
  %40 = getelementptr inbounds nuw i8, ptr %36, i64 %39
  %41 = getelementptr inbounds nuw i8, ptr %6, i64 281
  %42 = load i8, ptr %41, align 1, !tbaa !73
  %43 = zext i8 %42 to i64
  %44 = getelementptr inbounds nuw i8, ptr %36, i64 %43
  %45 = getelementptr inbounds nuw i8, ptr %6, i64 282
  %46 = load i8, ptr %45, align 2, !tbaa !73
  %47 = zext i8 %46 to i64
  %48 = getelementptr inbounds nuw i8, ptr %36, i64 %47
  %49 = sext i32 %8 to i64
  %50 = zext nneg i32 %22 to i64
  br label %.preheader.us

.preheader.us:                                    ; preds = %.preheader.us.preheader, %._crit_edge.us
  %.072.us = phi ptr [ %98, %._crit_edge.us ], [ %40, %.preheader.us.preheader ]
  %.05371.us = phi ptr [ %99, %._crit_edge.us ], [ %44, %.preheader.us.preheader ]
  %.05470.us = phi ptr [ %100, %._crit_edge.us ], [ %48, %.preheader.us.preheader ]
  %.05669.us = phi i32 [ %101, %._crit_edge.us ], [ %12, %.preheader.us.preheader ]
  br label %51

51:                                               ; preds = %.preheader.us, %51
  %indvars.iv = phi i64 [ 0, %.preheader.us ], [ %indvars.iv.next, %51 ]
  %52 = getelementptr inbounds i8, ptr %.072.us, i64 %indvars.iv
  %53 = load i8, ptr %52, align 1, !tbaa !73
  %54 = getelementptr inbounds i8, ptr %.05371.us, i64 %indvars.iv
  %55 = load i8, ptr %54, align 1, !tbaa !73
  %56 = getelementptr inbounds i8, ptr %.05470.us, i64 %indvars.iv
  %57 = load i8, ptr %56, align 1, !tbaa !73
  %58 = zext i8 %53 to i64
  %59 = load i64, ptr %24, align 8, !tbaa !45
  %60 = mul nsw i64 %59, %58
  %61 = zext i8 %55 to i64
  %62 = load i64, ptr %25, align 8, !tbaa !45
  %63 = mul nsw i64 %62, %61
  %64 = add nsw i64 %63, %60
  %65 = zext i8 %57 to i64
  %66 = load i64, ptr %26, align 8, !tbaa !45
  %67 = mul nsw i64 %66, %65
  %68 = add nsw i64 %64, %67
  %69 = lshr i64 %68, 16
  %70 = trunc i64 %69 to i32
  %71 = load i64, ptr %27, align 8, !tbaa !45
  %72 = mul nsw i64 %71, %58
  %73 = load i64, ptr %28, align 8, !tbaa !45
  %74 = mul nsw i64 %73, %61
  %75 = add nsw i64 %74, %72
  %76 = load i64, ptr %29, align 8, !tbaa !45
  %77 = mul nsw i64 %76, %65
  %78 = add nsw i64 %75, %77
  %79 = lshr i64 %78, 16
  %80 = trunc i64 %79 to i32
  %81 = load i64, ptr %30, align 8, !tbaa !45
  %82 = mul nsw i64 %81, %58
  %83 = load i64, ptr %31, align 8, !tbaa !45
  %84 = mul nsw i64 %83, %61
  %85 = add nsw i64 %84, %82
  %86 = load i64, ptr %32, align 8, !tbaa !45
  %87 = mul nsw i64 %86, %65
  %88 = add nsw i64 %85, %87
  %89 = lshr i64 %88, 16
  %90 = trunc i64 %89 to i32
  %.not.i.us = icmp ult i32 %70, 256
  %isnotneg.i.us = icmp sgt i32 %70, -1
  %91 = sext i1 %isnotneg.i.us to i8
  %92 = trunc i64 %69 to i8
  %.0.i.us = select i1 %.not.i.us, i8 %92, i8 %91
  store i8 %.0.i.us, ptr %52, align 1, !tbaa !73
  %.not.i57.us = icmp ult i32 %80, 256
  %isnotneg.i58.us = icmp sgt i32 %80, -1
  %93 = sext i1 %isnotneg.i58.us to i8
  %94 = trunc i64 %79 to i8
  %.0.i59.us = select i1 %.not.i57.us, i8 %94, i8 %93
  store i8 %.0.i59.us, ptr %54, align 1, !tbaa !73
  %.not.i60.us = icmp ult i32 %90, 256
  %isnotneg.i61.us = icmp sgt i32 %90, -1
  %95 = sext i1 %isnotneg.i61.us to i8
  %96 = trunc i64 %89 to i8
  %.0.i62.us = select i1 %.not.i60.us, i8 %96, i8 %95
  store i8 %.0.i62.us, ptr %56, align 1, !tbaa !73
  %indvars.iv.next = add nsw i64 %indvars.iv, %49
  %97 = icmp slt i64 %indvars.iv.next, %50
  br i1 %97, label %51, label %._crit_edge.us, !llvm.loop !80

._crit_edge.us:                                   ; preds = %51
  %98 = getelementptr inbounds i8, ptr %.072.us, i64 %18
  %99 = getelementptr inbounds i8, ptr %.05371.us, i64 %18
  %100 = getelementptr inbounds i8, ptr %.05470.us, i64 %18
  %101 = add nsw i32 %.05669.us, 1
  %exitcond.not = icmp eq i32 %101, %15
  br i1 %exitcond.not, label %._crit_edge73, label %.preheader.us, !llvm.loop !81

._crit_edge73:                                    ; preds = %._crit_edge.us, %.preheader.lr.ph, %4
  ret i32 0
}